target datalayout = "e-m:e-p270:32:32-p271:32:32-p272:64:64-i64:64-i128:128-f80:128-n8:16:32:64-S128"
target triple = "x86_64-pc-linux-gnu"

%"class.std::__cxx11::basic_string" = type { %"struct.std::__cxx11::basic_string<char>::_Alloc_hider", i64, %union.anon }
%"struct.std::__cxx11::basic_string<char>::_Alloc_hider" = type { ptr }
%union.anon = type { i64, [8 x i8] }
%class.cmStateSnapshot = type { ptr, %"class.cmLinkedTree<cmStateDetail::SnapshotDataType>::iterator" }
%"class.cmLinkedTree<cmStateDetail::SnapshotDataType>::iterator" = type { ptr, i64 }
%"class.std::map" = type { %"class.std::_Rb_tree" }
%"class.std::_Rb_tree" = type { %"struct.std::_Rb_tree<std::__cxx11::basic_string<char>, std::pair<const std::__cxx11::basic_string<char>, std::__cxx11::basic_string<char>>, std::_Select1st<std::pair<const std::__cxx11::basic_string<char>, std::__cxx11::basic_string<char>>>, std::less<std::__cxx11::basic_string<char>>>::_Rb_tree_impl" }
%"struct.std::_Rb_tree<std::__cxx11::basic_string<char>, std::pair<const std::__cxx11::basic_string<char>, std::__cxx11::basic_string<char>>, std::_Select1st<std::pair<const std::__cxx11::basic_string<char>, std::__cxx11::basic_string<char>>>, std::less<std::__cxx11::basic_string<char>>>::_Rb_tree_impl" = type { %"struct.std::_Rb_tree_key_compare", %"struct.std::_Rb_tree_header" }
%"struct.std::_Rb_tree_key_compare" = type { %"struct.std::less" }
%"struct.std::less" = type { i8 }
%"struct.std::_Rb_tree_header" = type { %"struct.std::_Rb_tree_node_base", i64 }
%"struct.std::_Rb_tree_node_base" = type { i32, ptr, ptr, ptr }
%"class.std::vector" = type { %"struct.std::_Vector_base" }
%"struct.std::_Vector_base" = type { %"struct.std::_Vector_base<std::__cxx11::basic_string<char>, std::allocator<std::__cxx11::basic_string<char>>>::_Vector_impl" }
%"struct.std::_Vector_base<std::__cxx11::basic_string<char>, std::allocator<std::__cxx11::basic_string<char>>>::_Vector_impl" = type { %"struct.std::_Vector_base<std::__cxx11::basic_string<char>, std::allocator<std::__cxx11::basic_string<char>>>::_Vector_impl_data" }
%"struct.std::_Vector_base<std::__cxx11::basic_string<char>, std::allocator<std::__cxx11::basic_string<char>>>::_Vector_impl_data" = type { ptr, ptr, ptr }
%class.cmLocalGenerator = type { %class.cmOutputConverter.base, ptr, %class.cmListFileBacktrace, ptr, %"class.std::map", i64, %"class.std::set", %"class.std::vector", %"class.std::unordered_map", %"class.std::vector.15", %"class.std::set.20", %"class.std::unordered_map", %"class.std::vector.15", %"class.std::map", %"class.std::map", %"class.std::map", %"class.std::__cxx11::basic_string", %"class.std::__cxx11::basic_string", %"class.std::unordered_map.28", i8, i64, i8, %"class.std::unordered_map.42" }
%class.cmOutputConverter.base = type <{ ptr, %class.cmStateSnapshot, i8, [7 x i8], %"class.std::__cxx11::basic_string", %"class.std::__cxx11::basic_string", i32 }>
%class.cmListFileBacktrace = type { %class.cmConstStack }
%class.cmConstStack = type { %"class.std::shared_ptr" }
%"class.std::shared_ptr" = type { %"class.std::__shared_ptr" }
%"class.std::__shared_ptr" = type { ptr, %"class.std::__shared_count" }
%"class.std::__shared_count" = type { ptr }
%"class.std::set" = type { %"class.std::_Rb_tree.3" }
%"class.std::_Rb_tree.3" = type { %"struct.std::_Rb_tree<std::__cxx11::basic_string<char>, std::__cxx11::basic_string<char>, std::_Identity<std::__cxx11::basic_string<char>>, std::less<std::__cxx11::basic_string<char>>>::_Rb_tree_impl" }
%"struct.std::_Rb_tree<std::__cxx11::basic_string<char>, std::__cxx11::basic_string<char>, std::_Identity<std::__cxx11::basic_string<char>>, std::less<std::__cxx11::basic_string<char>>>::_Rb_tree_impl" = type { %"struct.std::_Rb_tree_key_compare", %"struct.std::_Rb_tree_header" }
%"class.std::set.20" = type { %"class.std::_Rb_tree.21" }
%"class.std::_Rb_tree.21" = type { %"struct.std::_Rb_tree<const cmGeneratorTarget *, const cmGeneratorTarget *, std::_Identity<const cmGeneratorTarget *>, std::less<const cmGeneratorTarget *>>::_Rb_tree_impl" }
%"struct.std::_Rb_tree<const cmGeneratorTarget *, const cmGeneratorTarget *, std::_Identity<const cmGeneratorTarget *>, std::less<const cmGeneratorTarget *>>::_Rb_tree_impl" = type { %"struct.std::_Rb_tree_key_compare.25", %"struct.std::_Rb_tree_header" }
%"struct.std::_Rb_tree_key_compare.25" = type { %"struct.std::less.26" }
%"struct.std::less.26" = type { i8 }
%"class.std::unordered_map" = type { %"class.std::_Hashtable" }
%"class.std::_Hashtable" = type { ptr, i64, %"struct.std::__detail::_Hash_node_base", i64, %"struct.std::__detail::_Prime_rehash_policy", ptr }
%"struct.std::__detail::_Hash_node_base" = type { ptr }
%"struct.std::__detail::_Prime_rehash_policy" = type { float, i64 }
%"class.std::vector.15" = type { %"struct.std::_Vector_base.16" }
%"struct.std::_Vector_base.16" = type { %"struct.std::_Vector_base<std::unique_ptr<cmGeneratorTarget>, std::allocator<std::unique_ptr<cmGeneratorTarget>>>::_Vector_impl" }
%"struct.std::_Vector_base<std::unique_ptr<cmGeneratorTarget>, std::allocator<std::unique_ptr<cmGeneratorTarget>>>::_Vector_impl" = type { %"struct.std::_Vector_base<std::unique_ptr<cmGeneratorTarget>, std::allocator<std::unique_ptr<cmGeneratorTarget>>>::_Vector_impl_data" }
%"struct.std::_Vector_base<std::unique_ptr<cmGeneratorTarget>, std::allocator<std::unique_ptr<cmGeneratorTarget>>>::_Vector_impl_data" = type { ptr, ptr, ptr }
%"class.std::unordered_map.28" = type { %"class.std::_Hashtable.29" }
%"class.std::_Hashtable.29" = type { ptr, i64, %"struct.std::__detail::_Hash_node_base", i64, %"struct.std::__detail::_Prime_rehash_policy", ptr }
%"class.std::unordered_map.42" = type { %"class.std::_Hashtable.43" }
%"class.std::_Hashtable.43" = type { ptr, i64, %"struct.std::__detail::_Hash_node_base", i64, %"struct.std::__detail::_Prime_rehash_policy", ptr }
%"struct.std::pair" = type <{ %"struct.std::__detail::_Node_iterator", i8, [7 x i8] }>
%"struct.std::__detail::_Node_iterator" = type { %"struct.std::__detail::_Node_iterator_base" }
%"struct.std::__detail::_Node_iterator_base" = type { ptr }

; Function Attrs: mustprogress uwtable
define linkonce_odr dso_local { ptr, i8 } @_ZNSt10_HashtableINSt7__cxx1112basic_stringIcSt11char_traitsIcESaIcEEESt4pairIKS5_P17cmGeneratorTargetESaISA_ENSt8__detail10_Select1stESt8equal_toIS5_ESt4hashIS5_ENSC_18_Mod_range_hashingENSC_20_Default_ranged_hashENSC_20_Prime_rehash_policyENSC_17_Hashtable_traitsILb1ELb0ELb1EEEE7emplaceIJRS7_RS9_EEES6_INSC_14_Node_iteratorISA_Lb0ELb1EEEbEDpOT_(ptr noundef nonnull align 8 dereferenceable(56) %0, ptr noundef nonnull align 8 dereferenceable(32) %1, ptr noundef nonnull align 8 dereferenceable(8) %2) #4 comdat align 2 {
  %4 = alloca %"struct.std::pair", align 8
  %5 = alloca ptr, align 8
  %6 = alloca ptr, align 8
  %7 = alloca ptr, align 8
  store ptr %0, ptr %5, align 8
  store ptr %1, ptr %6, align 8
  store ptr %2, ptr %7, align 8
  %8 = load ptr, ptr %5, align 8
  %9 = load ptr, ptr %6, align 8
  %10 = load ptr, ptr %7, align 8
  %11 = call { ptr, i8 } @_ZNSt10_HashtableINSt7__cxx1112basic_stringIcSt11char_traitsIcESaIcEEESt4pairIKS5_P17cmGeneratorTargetESaISA_ENSt8__detail10_Select1stESt8equal_toIS5_ESt4hashIS5_ENSC_18_Mod_range_hashingENSC_20_Default_ranged_hashENSC_20_Prime_rehash_policyENSC_17_Hashtable_traitsILb1ELb0ELb1EEEE10_M_emplaceIJRS7_RS9_EEES6_INSC_14_Node_iteratorISA_Lb0ELb1EEEbESt17integral_constantIbLb1EEDpOT_(ptr noundef nonnull align 8 dereferenceable(56) %8, ptr noundef nonnull align 8 dereferenceable(32) %9, ptr noundef nonnull align 8 dereferenceable(8) %10)
  %12 = getelementptr inbounds { ptr, i8 }, ptr %4, i32 0, i32 0
  %13 = extractvalue { ptr, i8 } %11, 0
  store ptr %13, ptr %12, align 8
  %14 = getelementptr inbounds { ptr, i8 }, ptr %4, i32 0, i32 1
  %15 = extractvalue { ptr, i8 } %11, 1
  store i8 %15, ptr %14, align 8
  %16 = load { ptr, i8 }, ptr %4, align 8
  ret { ptr, i8 } %16
}

; Function Attrs: mustprogress uwtable
define linkonce_odr dso_local { ptr, i8 } @_ZNSt13unordered_mapINSt7__cxx1112basic_stringIcSt11char_traitsIcESaIcEEEP17cmGeneratorTargetSt4hashIS5_ESt8equal_toIS5_ESaISt4pairIKS5_S7_EEE7emplaceIJRSD_RS7_EEESC_INSt8__detail14_Node_iteratorISE_Lb0ELb1EEEbEDpOT_(ptr noundef nonnull align 8 dereferenceable(56) %0, ptr noundef nonnull align 8 dereferenceable(32) %1, ptr noundef nonnull align 8 dereferenceable(8) %2) #4 comdat align 2 {
  %4 = alloca %"struct.std::pair", align 8
  %5 = alloca ptr, align 8
  %6 = alloca ptr, align 8
  %7 = alloca ptr, align 8
  store ptr %0, ptr %5, align 8
  store ptr %1, ptr %6, align 8
  store ptr %2, ptr %7, align 8
  %8 = load ptr, ptr %5, align 8
  %9 = getelementptr inbounds %"class.std::unordered_map", ptr %8, i32 0, i32 0
  %10 = load ptr, ptr %6, align 8
  %11 = load ptr, ptr %7, align 8
  %12 = call { ptr, i8 } @_ZNSt10_HashtableINSt7__cxx1112basic_stringIcSt11char_traitsIcESaIcEEESt4pairIKS5_P17cmGeneratorTargetESaISA_ENSt8__detail10_Select1stESt8equal_toIS5_ESt4hashIS5_ENSC_18_Mod_range_hashingENSC_20_Default_ranged_hashENSC_20_Prime_rehash_policyENSC_17_Hashtable_traitsILb1ELb0ELb1EEEE7emplaceIJRS7_RS9_EEES6_INSC_14_Node_iteratorISA_Lb0ELb1EEEbEDpOT_(ptr noundef nonnull align 8 dereferenceable(56) %9, ptr noundef nonnull align 8 dereferenceable(32) %10, ptr noundef nonnull align 8 dereferenceable(8) %11)
  %13 = getelementptr inbounds { ptr, i8 }, ptr %4, i32 0, i32 0
  %14 = extractvalue { ptr, i8 } %12, 0
  store ptr %14, ptr %13, align 8
  %15 = getelementptr inbounds { ptr, i8 }, ptr %4, i32 0, i32 1
  %16 = extractvalue { ptr, i8 } %12, 1
  store i8 %16, ptr %15, align 8
  %17 = load { ptr, i8 }, ptr %4, align 8
  ret { ptr, i8 } %17
}

; Function Attrs: mustprogress uwtable
define dso_local void @_ZN16cmLocalGenerator26AddImportedGeneratorTargetEP17cmGeneratorTarget(ptr noundef nonnull align 8 dereferenceable(824) %0, ptr noundef %1) #4 align 2 {
  %3 = alloca ptr, align 8
  %4 = alloca ptr, align 8
  %5 = alloca %"struct.std::pair", align 8
  store ptr %0, ptr %3, align 8
  store ptr %1, ptr %4, align 8
  %6 = load ptr, ptr %3, align 8
  %7 = getelementptr inbounds %class.cmLocalGenerator, ptr %6, i32 0, i32 11
  %8 = load ptr, ptr %4, align 8
  %9 = call noundef nonnull align 8 dereferenceable(32) ptr @_ZNK17cmGeneratorTarget7GetNameB5cxx11Ev(ptr noundef nonnull align 8 dereferenceable(2728) %8)
  %10 = call { ptr, i8 } @_ZNSt13unordered_mapINSt7__cxx1112basic_stringIcSt11char_traitsIcESaIcEEEP17cmGeneratorTargetSt4hashIS5_ESt8equal_toIS5_ESaISt4pairIKS5_S7_EEE7emplaceIJRSD_RS7_EEESC_INSt8__detail14_Node_iteratorISE_Lb0ELb1EEEbEDpOT_(ptr noundef nonnull align 8 dereferenceable(56) %7, ptr noundef nonnull align 8 dereferenceable(32) %9, ptr noundef nonnull align 8 dereferenceable(8) %4)
  %11 = getelementptr inbounds { ptr, i8 }, ptr %5, i32 0, i32 0
  %12 = extractvalue { ptr, i8 } %10, 0
  store ptr %12, ptr %11, align 8
  %13 = getelementptr inbounds { ptr, i8 }, ptr %5, i32 0, i32 1
  %14 = extractvalue { ptr, i8 } %10, 1
  store i8 %14, ptr %13, align 8
  %15 = getelementptr inbounds %class.cmLocalGenerator, ptr %6, i32 0, i32 3
  %16 = load ptr, ptr %15, align 8
  %17 = load ptr, ptr %4, align 8
  call void @_ZN17cmGlobalGenerator20IndexGeneratorTargetEP17cmGeneratorTarget(ptr noundef nonnull align 8 dereferenceable(1778) %16, ptr noundef %17)
  ret void
}