; Function Attrs: mustprogress uwtable
define dso_local void @_ZN16cmLocalGenerator26AddImportedGeneratorTargetEP17cmGeneratorTarget(ptr noundef nonnull align 8 dereferenceable(824) %0, ptr noundef nonnull %1) local_unnamed_addr #3 align 2 {
  %3 = alloca ptr, align 8
  store ptr %1, ptr %3, align 8
  %4 = getelementptr inbounds i8, ptr %0, i64 400
  %5 = tail call noundef nonnull align 8 dereferenceable(32) ptr @_ZNK17cmGeneratorTarget7GetNameB5cxx11Ev(ptr noundef nonnull align 8 dereferenceable(2728) %1)
  %6 = call { ptr, i8 } @_ZNSt10_HashtableINSt7__cxx1112basic_stringIcSt11char_traitsIcESaIcEEESt4pairIKS5_P17cmGeneratorTargetESaISA_ENSt8__detail10_Select1stESt8equal_toIS5_ESt4hashIS5_ENSC_18_Mod_range_hashingENSC_20_Default_ranged_hashENSC_20_Prime_rehash_policyENSC_17_Hashtable_traitsILb1ELb0ELb1EEEE10_M_emplaceIJRS7_RS9_EEES6_INSC_14_Node_iteratorISA_Lb0ELb1EEEbESt17integral_constantIbLb1EEDpOT_(ptr noundef nonnull align 8 dereferenceable(56) %4, ptr noundef nonnull align 8 dereferenceable(32) %5, ptr noundef nonnull align 8 dereferenceable(8) %3)
  %7 = getelementptr inbounds i8, ptr %0, i64 136
  %8 = load ptr, ptr %7, align 8
  %9 = load ptr, ptr %3, align 8
  call void @_ZN17cmGlobalGenerator20IndexGeneratorTargetEP17cmGeneratorTarget(ptr noundef nonnull align 8 dereferenceable(1778) %8, ptr noundef %9)
  ret void
}